; Function Attrs: mustprogress nounwind uwtable
define hidden noundef i32 @_ZN15ConnectionGraph14address_offsetEP4NodeP11PhaseValues(ptr nocapture nonnull readnone align 8 %0, ptr nocapture noundef readonly %1, ptr noundef %2) local_unnamed_addr #0 align 2 {
  %4 = getelementptr inbounds i8, ptr %2, i64 40
  %5 = load ptr, ptr %4, align 8
  %6 = getelementptr inbounds i8, ptr %1, i64 40
  %7 = load i32, ptr %6, align 8
  %8 = getelementptr inbounds i8, ptr %5, i64 16
  %9 = load ptr, ptr %8, align 8
  %10 = zext i32 %7 to i64
  %11 = getelementptr inbounds ptr, ptr %9, i64 %10
  %12 = load ptr, ptr %11, align 8
  %13 = getelementptr inbounds i8, ptr %1, i64 44
  %14 = load i32, ptr %13, align 4
  %15 = and i32 %14, 1023
  %16 = icmp eq i32 %15, 512
  %17 = getelementptr inbounds i8, ptr %12, i64 16
  %18 = load i32, ptr %17, align 8
  br i1 %16, label %19, label %_ZN15ConnectionGraph25is_captured_store_addressEP4Node.exit.thread

19:                                               ; preds = %3
  %20 = add i32 %18, -23
  %or.cond.i = icmp ult i32 %20, -3
  %21 = icmp eq ptr %12, null
  %22 = or i1 %or.cond.i, %21
  br i1 %22, label %23, label %_ZN15ConnectionGraph25is_captured_store_addressEP4Node.exit.thread

23:                                               ; preds = %19
  %24 = getelementptr inbounds i8, ptr %1, i64 8
  %25 = load ptr, ptr %24, align 8
  %26 = getelementptr inbounds i8, ptr %25, i64 16
  %27 = load ptr, ptr %26, align 8
  %28 = getelementptr inbounds i8, ptr %27, i64 44
  %29 = load i32, ptr %28, align 4
  %30 = and i32 %29, 15
  switch i32 %30, label %_ZN15ConnectionGraph25is_captured_store_addressEP4Node.exit.thread [
    i32 8, label %_ZN15ConnectionGraph25is_captured_store_addressEP4Node.exit
    i32 12, label %31
  ]

31:                                               ; preds = %23
  %32 = getelementptr inbounds i8, ptr %1, i64 16
  %33 = load ptr, ptr %32, align 8
  %34 = getelementptr inbounds i8, ptr %1, i64 32
  %35 = load i32, ptr %34, align 8
  %36 = zext i32 %35 to i64
  %37 = getelementptr inbounds ptr, ptr %33, i64 %36
  %.not.i = icmp eq i32 %35, 0
  br i1 %.not.i, label %_ZN15ConnectionGraph25is_captured_store_addressEP4Node.exit.thread, label %.lr.ph21.i

.lr.ph21.i:                                       ; preds = %31, %.loopexit.i
  %.01620.i = phi ptr [ %58, %.loopexit.i ], [ %33, %31 ]
  %38 = load ptr, ptr %.01620.i, align 8
  %39 = getelementptr inbounds i8, ptr %38, i64 44
  %40 = load i32, ptr %39, align 4
  %41 = and i32 %40, 127
  %42 = icmp eq i32 %41, 80
  br i1 %42, label %43, label %.loopexit.i

43:                                               ; preds = %.lr.ph21.i
  %44 = getelementptr inbounds i8, ptr %38, i64 16
  %45 = load ptr, ptr %44, align 8
  %46 = getelementptr inbounds i8, ptr %38, i64 32
  %47 = load i32, ptr %46, align 8
  %48 = zext i32 %47 to i64
  %49 = getelementptr inbounds ptr, ptr %45, i64 %48
  %.not22.i = icmp eq i32 %47, 0
  br i1 %.not22.i, label %.loopexit.i, label %.lr.ph.i

50:                                               ; preds = %.lr.ph.i
  %51 = getelementptr inbounds i8, ptr %.019.i, i64 8
  %52 = icmp ult ptr %51, %49
  br i1 %52, label %.lr.ph.i, label %.loopexit.i, !llvm.loop !112

.lr.ph.i:                                         ; preds = %43, %50
  %.019.i = phi ptr [ %51, %50 ], [ %45, %43 ]
  %53 = load ptr, ptr %.019.i, align 8
  %54 = getelementptr inbounds i8, ptr %53, i64 44
  %55 = load i32, ptr %54, align 4
  %56 = and i32 %55, 63
  %57 = icmp eq i32 %56, 49
  br i1 %57, label %_ZN15ConnectionGraph25is_captured_store_addressEP4Node.exit.thread14, label %50

.loopexit.i:                                      ; preds = %50, %43, %.lr.ph21.i
  %58 = getelementptr inbounds i8, ptr %.01620.i, i64 8
  %59 = icmp ult ptr %58, %37
  br i1 %59, label %.lr.ph21.i, label %_ZN15ConnectionGraph25is_captured_store_addressEP4Node.exit.thread, !llvm.loop !113

_ZN15ConnectionGraph25is_captured_store_addressEP4Node.exit: ; preds = %23
  %60 = getelementptr inbounds i8, ptr %27, i64 8
  %61 = load ptr, ptr %60, align 8
  %62 = load ptr, ptr %61, align 8
  %63 = getelementptr inbounds i8, ptr %62, i64 44
  %64 = load i32, ptr %63, align 4
  %65 = and i32 %64, 63
  %66 = icmp eq i32 %65, 39
  br i1 %66, label %_ZN15ConnectionGraph25is_captured_store_addressEP4Node.exit.thread14, label %_ZN15ConnectionGraph25is_captured_store_addressEP4Node.exit.thread

_ZN15ConnectionGraph25is_captured_store_addressEP4Node.exit.thread14: ; preds = %.lr.ph.i, %_ZN15ConnectionGraph25is_captured_store_addressEP4Node.exit
  %67 = getelementptr inbounds i8, ptr %25, i64 24
  %68 = load ptr, ptr %67, align 8
  %69 = tail call noundef ptr @_ZN11PhaseValues14find_long_typeEP4Node(ptr noundef nonnull align 8 dereferenceable(2400) %2, ptr noundef %68) #12
  %.not.i11 = icmp eq ptr %69, null
  br i1 %.not.i11, label %_ZN11PhaseValues13find_long_conEP4Nodel.exit, label %70

70:                                               ; preds = %_ZN15ConnectionGraph25is_captured_store_addressEP4Node.exit.thread14
  %71 = getelementptr inbounds i8, ptr %69, i64 24
  %72 = load i64, ptr %71, align 8
  %73 = getelementptr inbounds i8, ptr %69, i64 32
  %74 = load i64, ptr %73, align 8
  %75 = icmp eq i64 %72, %74
  %76 = trunc i64 %72 to i32
  %77 = select i1 %75, i32 %76, i32 -2000000001
  br label %_ZN11PhaseValues13find_long_conEP4Nodel.exit

_ZN15ConnectionGraph25is_captured_store_addressEP4Node.exit.thread: ; preds = %.loopexit.i, %3, %31, %23, %_ZN15ConnectionGraph25is_captured_store_addressEP4Node.exit, %19
  %78 = add i32 %18, -18
  %or.cond.i12 = icmp ult i32 %78, 9
  %79 = select i1 %or.cond.i12, ptr %12, ptr null
  %80 = getelementptr inbounds i8, ptr %79, i64 36
  %81 = load i32, ptr %80, align 4
  br label %_ZN11PhaseValues13find_long_conEP4Nodel.exit

_ZN11PhaseValues13find_long_conEP4Nodel.exit:     ; preds = %70, %_ZN15ConnectionGraph25is_captured_store_addressEP4Node.exit.thread14, %_ZN15ConnectionGraph25is_captured_store_addressEP4Node.exit.thread
  %.0 = phi i32 [ %81, %_ZN15ConnectionGraph25is_captured_store_addressEP4Node.exit.thread ], [ -2000000001, %_ZN15ConnectionGraph25is_captured_store_addressEP4Node.exit.thread14 ], [ %77, %70 ]
  ret i32 %.0
}